; Function Attrs: nounwind uwtable
define hidden ptr @mi_heap_recalloc_aligned_at(ptr noundef %0, ptr noundef %1, i64 noundef %2, i64 noundef %3, i64 noundef %4, i64 noundef %5) local_unnamed_addr #0 {
  %.not = icmp eq i64 %2, 1
  br i1 %.not, label %11, label %7

7:                                                ; preds = %6
  %8 = tail call { i64, i1 } @llvm.umul.with.overflow.i64(i64 range(i64 2, 1) %2, i64 %3)
  %9 = extractvalue { i64, i1 } %8, 1
  %10 = extractvalue { i64, i1 } %8, 0
  br i1 %9, label %mi_count_size_overflow.exit, label %11, !prof !17

11:                                               ; preds = %7, %6
  %storemerge.i.ph = phi i64 [ %3, %6 ], [ %10, %7 ]
  %12 = tail call fastcc ptr @mi_heap_realloc_zero_aligned_at(ptr noundef %0, ptr noundef %1, i64 noundef %storemerge.i.ph, i64 noundef %4, i64 noundef %5, i1 noundef zeroext true) #9
  br label %mi_count_size_overflow.exit

mi_count_size_overflow.exit:                      ; preds = %7, %11
  %.0 = phi ptr [ %12, %11 ], [ null, %7 ]
  ret ptr %.0
}